; Function Attrs: mustprogress uwtable
define hidden noundef ptr @_ZN19OpenColorIO_v2_5dev20CTFReaderInvLut1DElt15updateDimensionERKSt6vectorIjSaIjEE(ptr noundef nonnull readonly align 8 captures(none) dereferenceable(136) %0, ptr noundef nonnull readonly align 8 captures(none) dereferenceable(24) %1) unnamed_addr #4 align 2 {
  %3 = getelementptr inbounds nuw i8, ptr %1, i64 8
  %4 = load ptr, ptr %3, align 8, !tbaa !88
  %5 = load ptr, ptr %1, align 8, !tbaa !84
  %6 = ptrtoint ptr %4 to i64
  %7 = ptrtoint ptr %5 to i64
  %8 = sub i64 %6, %7
  %.not = icmp eq i64 %8, 8
  br i1 %.not, label %9, label %25

9:                                                ; preds = %2
  %10 = getelementptr inbounds nuw i8, ptr %5, i64 4
  %11 = load i32, ptr %10, align 4, !tbaa !35
  switch i32 %11, label %25 [
    i32 3, label %12
    i32 1, label %12
  ]

12:                                               ; preds = %9, %9
  %13 = icmp ne ptr %5, %4
  %spec.select = zext i1 %13 to i64
  %14 = getelementptr inbounds nuw i32, ptr %5, i64 %spec.select
  %15 = load i32, ptr %14, align 4, !tbaa !35
  %16 = getelementptr inbounds nuw i8, ptr %0, i64 120
  %17 = load ptr, ptr %16, align 8, !tbaa !960
  %18 = getelementptr inbounds nuw i8, ptr %17, i64 176
  %19 = load i32, ptr %5, align 4, !tbaa !35
  %20 = zext i32 %19 to i64
  %21 = zext i32 %15 to i64
  %22 = load ptr, ptr %18, align 8, !tbaa !9
  %23 = getelementptr inbounds nuw i8, ptr %22, i64 56
  %24 = load ptr, ptr %23, align 8
  tail call void %24(ptr noundef nonnull align 8 dereferenceable(48) %18, i64 noundef %20, i64 noundef %21)
  br label %25

25:                                               ; preds = %9, %12, %2
  %.0 = phi ptr [ null, %2 ], [ %18, %12 ], [ null, %9 ]
  ret ptr %.0
}